; Function Attrs: mustprogress uwtable
define void @_ZN2cv17CommandLineParser4Impl12apply_paramsERKNSt7__cxx1112basic_stringIcSt11char_traitsIcESaIcEEES9_(ptr noundef nonnull readonly align 8 captures(none) dereferenceable(164) %0, ptr noundef nonnull readonly align 8 captures(none) dereferenceable(32) %1, ptr noundef nonnull align 8 dereferenceable(32) %2) local_unnamed_addr #0 align 2 {
  %4 = getelementptr inbounds nuw i8, ptr %0, i64 136
  %5 = getelementptr inbounds nuw i8, ptr %0, i64 144
  %6 = load ptr, ptr %5, align 8, !tbaa !9
  %7 = load ptr, ptr %4, align 8, !tbaa !12
  %.not = icmp eq ptr %6, %7
  br i1 %.not, label %._crit_edge, label %.preheader.lr.ph

.preheader.lr.ph:                                 ; preds = %3
  %8 = getelementptr inbounds nuw i8, ptr %1, i64 8
  br label %.preheader

.preheader:                                       ; preds = %.preheader.lr.ph, %.loopexit
  %9 = phi ptr [ %7, %.preheader.lr.ph ], [ %32, %.loopexit ]
  %10 = phi ptr [ %6, %.preheader.lr.ph ], [ %33, %.loopexit ]
  %.01014 = phi i64 [ 0, %.preheader.lr.ph ], [ %34, %.loopexit ]
  %11 = getelementptr inbounds nuw %"struct.cv::CommandLineParserParams", ptr %9, i64 %.01014
  %12 = getelementptr inbounds nuw i8, ptr %11, i64 64
  %13 = getelementptr inbounds nuw i8, ptr %11, i64 72
  %14 = load ptr, ptr %13, align 8, !tbaa !18
  %15 = load ptr, ptr %12, align 8, !tbaa !21
  %.not15 = icmp eq ptr %14, %15
  br i1 %.not15, label %.loopexit, label %.lr.ph

.lr.ph:                                           ; preds = %.preheader
  %16 = ptrtoint ptr %14 to i64
  %17 = ptrtoint ptr %15 to i64
  %18 = sub i64 %16, %17
  %19 = ashr exact i64 %18, 5
  %20 = load i64, ptr %8, align 8, !tbaa !24
  %21 = load ptr, ptr %1, align 8
  %umax = tail call i64 @llvm.umax.i64(i64 %19, i64 1)
  br label %22

._crit_edge:                                      ; preds = %.loopexit, %3
  ret void

22:                                               ; preds = %.lr.ph, %_ZNKSt7__cxx1112basic_stringIcSt11char_traitsIcESaIcEE7compareERKS4_.exit.thread
  %.013 = phi i64 [ 0, %.lr.ph ], [ %31, %_ZNKSt7__cxx1112basic_stringIcSt11char_traitsIcESaIcEE7compareERKS4_.exit.thread ]
  %23 = getelementptr inbounds nuw %"class.std::__cxx11::basic_string", ptr %15, i64 %.013
  %24 = getelementptr inbounds nuw i8, ptr %23, i64 8
  %25 = load i64, ptr %24, align 8, !tbaa !24
  %.sroa.speculated.i = tail call i64 @llvm.umin.i64(i64 %25, i64 %20)
  %26 = icmp eq i64 %.sroa.speculated.i, 0
  br i1 %26, label %_ZNKSt7__cxx1112basic_stringIcSt11char_traitsIcESaIcEE7compareERKS4_.exit, label %_ZNSt11char_traitsIcE7compareEPKcS2_m.exit.i

_ZNSt11char_traitsIcE7compareEPKcS2_m.exit.i:     ; preds = %22
  %27 = load ptr, ptr %23, align 8, !tbaa !13
  %bcmp = tail call i32 @bcmp(ptr %21, ptr %27, i64 %.sroa.speculated.i)
  %.not.i = icmp eq i32 %bcmp, 0
  %28 = icmp eq i64 %20, %25
  %or.cond = and i1 %28, %.not.i
  br i1 %or.cond, label %29, label %_ZNKSt7__cxx1112basic_stringIcSt11char_traitsIcESaIcEE7compareERKS4_.exit.thread

_ZNKSt7__cxx1112basic_stringIcSt11char_traitsIcESaIcEE7compareERKS4_.exit: ; preds = %22
  %.old = icmp eq i64 %20, %25
  br i1 %.old, label %29, label %_ZNKSt7__cxx1112basic_stringIcSt11char_traitsIcESaIcEE7compareERKS4_.exit.thread

29:                                               ; preds = %_ZNSt11char_traitsIcE7compareEPKcS2_m.exit.i, %_ZNKSt7__cxx1112basic_stringIcSt11char_traitsIcESaIcEE7compareERKS4_.exit
  %30 = getelementptr inbounds nuw i8, ptr %11, i64 32
  tail call void @_ZNSt7__cxx1112basic_stringIcSt11char_traitsIcESaIcEE9_M_assignERKS4_(ptr noundef nonnull align 8 dereferenceable(32) %30, ptr noundef nonnull align 8 dereferenceable(32) %2)
  %.pre = load ptr, ptr %5, align 8, !tbaa !9
  %.pre16 = load ptr, ptr %4, align 8, !tbaa !12
  br label %.loopexit

_ZNKSt7__cxx1112basic_stringIcSt11char_traitsIcESaIcEE7compareERKS4_.exit.thread: ; preds = %_ZNSt11char_traitsIcE7compareEPKcS2_m.exit.i, %_ZNKSt7__cxx1112basic_stringIcSt11char_traitsIcESaIcEE7compareERKS4_.exit
  %31 = add nuw i64 %.013, 1
  %exitcond.not = icmp eq i64 %31, %umax
  br i1 %exitcond.not, label %.loopexit, label %22, !llvm.loop !99

.loopexit:                                        ; preds = %_ZNKSt7__cxx1112basic_stringIcSt11char_traitsIcESaIcEE7compareERKS4_.exit.thread, %.preheader, %29
  %32 = phi ptr [ %9, %.preheader ], [ %.pre16, %29 ], [ %9, %_ZNKSt7__cxx1112basic_stringIcSt11char_traitsIcESaIcEE7compareERKS4_.exit.thread ]
  %33 = phi ptr [ %10, %.preheader ], [ %.pre, %29 ], [ %10, %_ZNKSt7__cxx1112basic_stringIcSt11char_traitsIcESaIcEE7compareERKS4_.exit.thread ]
  %34 = add nuw i64 %.01014, 1
  %35 = ptrtoint ptr %33 to i64
  %36 = ptrtoint ptr %32 to i64
  %37 = sub i64 %35, %36
  %38 = sdiv exact i64 %37, 96
  %39 = icmp ult i64 %34, %38
  br i1 %39, label %.preheader, label %._crit_edge, !llvm.loop !100
}